target datalayout = "e-m:e-p270:32:32-p271:32:32-p272:64:64-i64:64-i128:128-f80:128-n8:16:32:64-S128"
target triple = "x86_64-pc-linux-gnu"

; Function Attrs: mustprogress uwtable
define void @_ZN6icu_7715IslamicCalendar14setRelatedYearEi(ptr noundef nonnull align 8 dereferenceable(192) %0, i32 noundef %1) unnamed_addr #1 align 2 {
  %3 = alloca ptr, align 8
  %4 = alloca i32, align 4
  %5 = alloca i32, align 4
  %6 = alloca i32, align 4
  %7 = alloca i32, align 4
  store ptr %0, ptr %3, align 8, !tbaa !3
  store i32 %1, ptr %4, align 4, !tbaa !17
  %8 = load ptr, ptr %3, align 8
  call void @llvm.lifetime.start.p0(i64 4, ptr %5) #8
  call void @llvm.lifetime.start.p0(i64 4, ptr %6) #8
  call void @llvm.lifetime.start.p0(i64 4, ptr %7) #8
  store i32 0, ptr %7, align 4, !tbaa !17
  %9 = load i32, ptr %4, align 4, !tbaa !17
  %10 = icmp sge i32 %9, 1977
  br i1 %10, label %11, label %24

11:                                               ; preds = %2
  %12 = load i32, ptr %4, align 4, !tbaa !17
  %13 = sub nsw i32 %12, 1977
  %14 = sdiv i32 %13, 65
  store i32 %14, ptr %5, align 4, !tbaa !17
  %15 = load i32, ptr %4, align 4, !tbaa !17
  %16 = sub nsw i32 %15, 1977
  %17 = srem i32 %16, 65
  store i32 %17, ptr %6, align 4, !tbaa !17
  %18 = load i32, ptr %5, align 4, !tbaa !17
  %19 = mul nsw i32 2, %18
  %20 = load i32, ptr %6, align 4, !tbaa !17
  %21 = icmp sge i32 %20, 32
  %22 = select i1 %21, i32 1, i32 0
  %23 = add nsw i32 %19, %22
  store i32 %23, ptr %7, align 4, !tbaa !17
  br label %39

24:                                               ; preds = %2
  %25 = load i32, ptr %4, align 4, !tbaa !17
  %26 = sub nsw i32 %25, 1976
  %27 = sdiv i32 %26, 65
  %28 = sub nsw i32 %27, 1
  store i32 %28, ptr %5, align 4, !tbaa !17
  %29 = load i32, ptr %4, align 4, !tbaa !17
  %30 = sub nsw i32 %29, 1976
  %31 = sub nsw i32 0, %30
  %32 = srem i32 %31, 65
  store i32 %32, ptr %6, align 4, !tbaa !17
  %33 = load i32, ptr %5, align 4, !tbaa !17
  %34 = mul nsw i32 2, %33
  %35 = load i32, ptr %6, align 4, !tbaa !17
  %36 = icmp sle i32 %35, 32
  %37 = select i1 %36, i32 1, i32 0
  %38 = add nsw i32 %34, %37
  store i32 %38, ptr %7, align 4, !tbaa !17
  br label %39

39:                                               ; preds = %24, %11
  %40 = load i32, ptr %4, align 4, !tbaa !17
  %41 = sub nsw i32 %40, 579
  %42 = load i32, ptr %7, align 4, !tbaa !17
  %43 = add nsw i32 %41, %42
  store i32 %43, ptr %4, align 4, !tbaa !17
  %44 = load i32, ptr %4, align 4, !tbaa !17
  call void @_ZN6icu_778Calendar3setE19UCalendarDateFieldsi(ptr noundef nonnull align 8 dereferenceable(192) %8, i32 noundef 19, i32 noundef %44)
  call void @llvm.lifetime.end.p0(i64 4, ptr %7) #8
  call void @llvm.lifetime.end.p0(i64 4, ptr %6) #8
  call void @llvm.lifetime.end.p0(i64 4, ptr %5) #8
  ret void
}