; Function Attrs: mustprogress uwtable
define void @_ZN6icu_7715IslamicCalendar14setRelatedYearEi(ptr noundef nonnull align 8 dereferenceable(192) %0, i32 noundef %1) unnamed_addr #1 align 2 {
  %3 = icmp sgt i32 %1, 1976
  br i1 %3, label %4, label %12

4:                                                ; preds = %2
  %5 = add nsw i32 %1, -1977
  %6 = udiv i32 %5, 65
  %7 = urem i32 %5, 65
  %8 = shl nuw nsw i32 %6, 1
  %9 = icmp samesign ugt i32 %7, 31
  %10 = zext i1 %9 to i32
  %11 = or disjoint i32 %8, %10
  br label %19

12:                                               ; preds = %2
  %.nonneg = sub i32 1976, %1
  %13 = udiv i32 %.nonneg, 65
  %14 = urem i32 %.nonneg, 65
  %15 = shl nuw nsw i32 %13, 1
  %16 = icmp samesign ult i32 %14, 33
  %17 = zext i1 %16 to i32
  %reass.sub = sub nsw i32 %17, %15
  %18 = add nsw i32 %reass.sub, -2
  br label %19

19:                                               ; preds = %12, %4
  %.0 = phi i32 [ %11, %4 ], [ %18, %12 ]
  %20 = add nsw i32 %1, -579
  %21 = add nsw i32 %20, %.0
  tail call void @_ZN6icu_778Calendar3setE19UCalendarDateFieldsi(ptr noundef nonnull align 8 dereferenceable(192) %0, i32 noundef 19, i32 noundef %21)
  ret void
}